; Function Attrs: nounwind uwtable
define internal i32 @ecdsa_verify_message_final(ptr noundef readonly captures(address_is_null) %0) #0 {
  %2 = alloca [64 x i8], align 16
  %3 = alloca i32, align 4
  call void @llvm.lifetime.start.p0(i64 64, ptr nonnull %2) #8
  call void @llvm.lifetime.start.p0(i64 4, ptr nonnull %3) #8
  store i32 0, ptr %3, align 4, !tbaa !21
  %4 = tail call i32 @ossl_prov_is_running() #8
  %5 = icmp eq i32 %4, 0
  %6 = icmp eq ptr %0, null
  %or.cond = or i1 %6, %5
  br i1 %or.cond, label %ecdsa_verify_directly.exit, label %7

7:                                                ; preds = %1
  %8 = getelementptr inbounds nuw i8, ptr %0, i64 360
  %9 = load ptr, ptr %8, align 8, !tbaa !18
  %10 = icmp eq ptr %9, null
  br i1 %10, label %ecdsa_verify_directly.exit, label %11

11:                                               ; preds = %7
  %12 = call i32 @EVP_DigestFinal_ex(ptr noundef nonnull %9, ptr noundef nonnull %2, ptr noundef nonnull %3) #8
  %.not = icmp eq i32 %12, 0
  br i1 %.not, label %ecdsa_verify_directly.exit, label %13

13:                                               ; preds = %11
  %14 = getelementptr inbounds nuw i8, ptr %0, i64 376
  %15 = load ptr, ptr %14, align 8, !tbaa !25
  %16 = getelementptr inbounds nuw i8, ptr %0, i64 384
  %17 = load i64, ptr %16, align 8, !tbaa !26
  %18 = load i32, ptr %3, align 4, !tbaa !21
  %19 = call i32 @ossl_prov_is_running() #8
  %.not.i = icmp eq i32 %19, 0
  br i1 %.not.i, label %ecdsa_verify_directly.exit, label %20

20:                                               ; preds = %13
  %21 = zext i32 %18 to i64
  %22 = getelementptr inbounds nuw i8, ptr %0, i64 368
  %23 = load i64, ptr %22, align 8, !tbaa !27
  %.not10.i = icmp eq i64 %23, 0
  %.not11.i = icmp eq i64 %23, %21
  %or.cond.i = or i1 %.not10.i, %.not11.i
  br i1 %or.cond.i, label %24, label %ecdsa_verify_directly.exit

24:                                               ; preds = %20
  %25 = trunc i64 %17 to i32
  %26 = getelementptr inbounds nuw i8, ptr %0, i64 16
  %27 = load ptr, ptr %26, align 8, !tbaa !19
  %28 = call i32 @ECDSA_verify(i32 noundef 0, ptr noundef nonnull %2, i32 noundef %18, ptr noundef %15, i32 noundef %25, ptr noundef %27) #8
  br label %ecdsa_verify_directly.exit

ecdsa_verify_directly.exit:                       ; preds = %24, %20, %13, %11, %1, %7
  %.0 = phi i32 [ 0, %7 ], [ 0, %1 ], [ 0, %11 ], [ %28, %24 ], [ 0, %20 ], [ 0, %13 ]
  call void @llvm.lifetime.end.p0(i64 4, ptr nonnull %3) #8
  call void @llvm.lifetime.end.p0(i64 64, ptr nonnull %2) #8
  ret i32 %.0
}